target datalayout = "e-m:e-p270:32:32-p271:32:32-p272:64:64-i64:64-i128:128-f80:128-n8:16:32:64-S128"
target triple = "x86_64-pc-linux-gnu"

%struct.mbedtls_pk_info_t = type { i32, ptr, ptr, ptr, ptr, ptr, ptr, ptr, ptr, ptr, ptr, ptr }
%struct.mbedtls_pk_context = type { ptr, ptr }

; Function Attrs: mustprogress uwtable
define hidden i32 @mbedtls_pk_setup(ptr noundef %0, ptr noundef %1) #1 {
  %3 = alloca i32, align 4
  %4 = alloca ptr, align 8
  %5 = alloca ptr, align 8
  store ptr %0, ptr %4, align 8, !tbaa !3
  store ptr %1, ptr %5, align 8, !tbaa !17
  br label %6

6:                                                ; preds = %2
  br label %7

7:                                                ; preds = %6
  %8 = load ptr, ptr %5, align 8, !tbaa !17
  %9 = icmp eq ptr %8, null
  br i1 %9, label %15, label %10

10:                                               ; preds = %7
  %11 = load ptr, ptr %4, align 8, !tbaa !3
  %12 = getelementptr inbounds nuw %struct.mbedtls_pk_context, ptr %11, i32 0, i32 0
  %13 = load ptr, ptr %12, align 8, !tbaa !8
  %14 = icmp ne ptr %13, null
  br i1 %14, label %15, label %16

15:                                               ; preds = %10, %7
  store i32 -16000, ptr %3, align 4
  br label %29

16:                                               ; preds = %10
  %17 = load ptr, ptr %5, align 8, !tbaa !17
  %18 = getelementptr inbounds nuw %struct.mbedtls_pk_info_t, ptr %17, i32 0, i32 9
  %19 = load ptr, ptr %18, align 8, !tbaa !18
  %20 = call noundef ptr %19()
  %21 = load ptr, ptr %4, align 8, !tbaa !3
  %22 = getelementptr inbounds nuw %struct.mbedtls_pk_context, ptr %21, i32 0, i32 1
  store ptr %20, ptr %22, align 8, !tbaa !11
  %23 = icmp eq ptr %20, null
  br i1 %23, label %24, label %25

24:                                               ; preds = %16
  store i32 -16256, ptr %3, align 4
  br label %29

25:                                               ; preds = %16
  %26 = load ptr, ptr %5, align 8, !tbaa !17
  %27 = load ptr, ptr %4, align 8, !tbaa !3
  %28 = getelementptr inbounds nuw %struct.mbedtls_pk_context, ptr %27, i32 0, i32 0
  store ptr %26, ptr %28, align 8, !tbaa !8
  store i32 0, ptr %3, align 4
  br label %29

29:                                               ; preds = %25, %24, %15
  %30 = load i32, ptr %3, align 4
  ret i32 %30
}