; Function Attrs: mustprogress uwtable
define hidden range(i32 -16256, 1) i32 @mbedtls_pk_setup(ptr noundef captures(none) %0, ptr noundef %1) local_unnamed_addr #1 {
  %3 = icmp eq ptr %1, null
  br i1 %3, label %13, label %4

4:                                                ; preds = %2
  %5 = load ptr, ptr %0, align 8, !tbaa !3
  %.not = icmp eq ptr %5, null
  br i1 %.not, label %6, label %13

6:                                                ; preds = %4
  %7 = getelementptr inbounds nuw i8, ptr %1, i64 72
  %8 = load ptr, ptr %7, align 8, !tbaa !14
  %9 = tail call noundef ptr %8()
  %10 = getelementptr inbounds nuw i8, ptr %0, i64 8
  store ptr %9, ptr %10, align 8, !tbaa !13
  %11 = icmp eq ptr %9, null
  br i1 %11, label %13, label %12

12:                                               ; preds = %6
  store ptr %1, ptr %0, align 8, !tbaa !3
  br label %13

13:                                               ; preds = %6, %2, %4, %12
  %.0 = phi i32 [ 0, %12 ], [ -16000, %4 ], [ -16000, %2 ], [ -16256, %6 ]
  ret i32 %.0
}